target datalayout = "e-m:e-p270:32:32-p271:32:32-p272:64:64-i64:64-i128:128-f80:128-n8:16:32:64-S128"
target triple = "x86_64-unknown-linux-gnu"

; Function Attrs: mustprogress nounwind uwtable
define noundef double @_ZN8facebook5velox4core22toBytesPerCapacityUnitENS1_12CapacityUnitE(i32 noundef %unit) #0 {
entry:
  %retval = alloca double, align 8
  %unit.addr = alloca i32, align 4
  store i32 %unit, ptr %unit.addr, align 4
  %0 = load i32, ptr %unit.addr, align 4
  switch i32 %0, label %sw.default [
    i32 0, label %sw.bb
    i32 1, label %sw.bb1
    i32 2, label %sw.bb2
    i32 3, label %sw.bb4
    i32 4, label %sw.bb6
    i32 5, label %sw.bb8
  ]

sw.bb:                                            ; preds = %entry
  store double 1.000000e+00, ptr %retval, align 8
  br label %return

sw.bb1:                                           ; preds = %entry
  %call = call double @exp2(double noundef 1.000000e+01) #4
  store double %call, ptr %retval, align 8
  br label %return

sw.bb2:                                           ; preds = %entry
  %call3 = call double @exp2(double noundef 2.000000e+01) #4
  store double %call3, ptr %retval, align 8
  br label %return

sw.bb4:                                           ; preds = %entry
  %call5 = call double @exp2(double noundef 3.000000e+01) #4
  store double %call5, ptr %retval, align 8
  br label %return

sw.bb6:                                           ; preds = %entry
  %call7 = call double @exp2(double noundef 4.000000e+01) #4
  store double %call7, ptr %retval, align 8
  br label %return

sw.bb8:                                           ; preds = %entry
  %call9 = call double @exp2(double noundef 5.000000e+01) #4
  store double %call9, ptr %retval, align 8
  br label %return

sw.default:                                       ; preds = %entry
  call void @llvm.trap()
  br label %sw.epilog

sw.epilog:                                        ; preds = %sw.default
  call void @llvm.trap()
  unreachable

return:                                           ; preds = %sw.bb8, %sw.bb6, %sw.bb4, %sw.bb2, %sw.bb1, %sw.bb
  %1 = load double, ptr %retval, align 8
  ret double %1
}