; Function Attrs: mustprogress nounwind memory(inaccessiblemem: write) uwtable
define noundef double @_ZN8facebook5velox4core22toBytesPerCapacityUnitENS1_12CapacityUnitE(i32 noundef %unit) local_unnamed_addr #0 {
entry:
  %0 = icmp ult i32 %unit, 6
  br i1 %0, label %switch.lookup, label %sw.default

sw.default:                                       ; preds = %entry
  tail call void @llvm.trap()
  unreachable

switch.lookup:                                    ; preds = %entry
  %1 = zext nneg i32 %unit to i64
  %switch.gep = getelementptr inbounds [6 x double], ptr @switch.table._ZN8facebook5velox4core10toCapacityERKNSt7__cxx1112basic_stringIcSt11char_traitsIcESaIcEEENS1_12CapacityUnitE.1, i64 0, i64 %1
  %switch.load = load double, ptr %switch.gep, align 8
  ret double %switch.load
}